target datalayout = "e-m:e-p270:32:32-p271:32:32-p272:64:64-i64:64-i128:128-f80:128-n8:16:32:64-S128"
target triple = "x86_64-pc-linux-gnu"

; Function Attrs: mustprogress uwtable
define internal noundef i32 @_ZL9math_lerpP9lua_State(ptr noundef %0) #2 {
  %2 = alloca ptr, align 8
  %3 = alloca double, align 8
  %4 = alloca double, align 8
  %5 = alloca double, align 8
  %6 = alloca double, align 8
  store ptr %0, ptr %2, align 8, !tbaa !20
  call void @llvm.lifetime.start.p0(i64 8, ptr %3) #11
  %7 = load ptr, ptr %2, align 8, !tbaa !20
  %8 = call noundef double @_Z16luaL_checknumberP9lua_Statei(ptr noundef %7, i32 noundef 1)
  store double %8, ptr %3, align 8, !tbaa !37
  call void @llvm.lifetime.start.p0(i64 8, ptr %4) #11
  %9 = load ptr, ptr %2, align 8, !tbaa !20
  %10 = call noundef double @_Z16luaL_checknumberP9lua_Statei(ptr noundef %9, i32 noundef 2)
  store double %10, ptr %4, align 8, !tbaa !37
  call void @llvm.lifetime.start.p0(i64 8, ptr %5) #11
  %11 = load ptr, ptr %2, align 8, !tbaa !20
  %12 = call noundef double @_Z16luaL_checknumberP9lua_Statei(ptr noundef %11, i32 noundef 3)
  store double %12, ptr %5, align 8, !tbaa !37
  call void @llvm.lifetime.start.p0(i64 8, ptr %6) #11
  %13 = load double, ptr %5, align 8, !tbaa !37
  %14 = fcmp oeq double %13, 1.000000e+00
  br i1 %14, label %15, label %17

15:                                               ; preds = %1
  %16 = load double, ptr %4, align 8, !tbaa !37
  br label %24

17:                                               ; preds = %1
  %18 = load double, ptr %3, align 8, !tbaa !37
  %19 = load double, ptr %4, align 8, !tbaa !37
  %20 = load double, ptr %3, align 8, !tbaa !37
  %21 = fsub double %19, %20
  %22 = load double, ptr %5, align 8, !tbaa !37
  %23 = call double @llvm.fmuladd.f64(double %21, double %22, double %18)
  br label %24

24:                                               ; preds = %17, %15
  %25 = phi double [ %16, %15 ], [ %23, %17 ]
  store double %25, ptr %6, align 8, !tbaa !37
  %26 = load ptr, ptr %2, align 8, !tbaa !20
  %27 = load double, ptr %6, align 8, !tbaa !37
  call void @_Z14lua_pushnumberP9lua_Stated(ptr noundef %26, double noundef %27)
  call void @llvm.lifetime.end.p0(i64 8, ptr %6) #11
  call void @llvm.lifetime.end.p0(i64 8, ptr %5) #11
  call void @llvm.lifetime.end.p0(i64 8, ptr %4) #11
  call void @llvm.lifetime.end.p0(i64 8, ptr %3) #11
  ret i32 1
}