; Function Attrs: mustprogress uwtable
define internal noundef i32 @_ZL9math_lerpP9lua_State(ptr noundef %0) #0 {
  %2 = tail call noundef double @_Z16luaL_checknumberP9lua_Statei(ptr noundef %0, i32 noundef 1)
  %3 = tail call noundef double @_Z16luaL_checknumberP9lua_Statei(ptr noundef %0, i32 noundef 2)
  %4 = tail call noundef double @_Z16luaL_checknumberP9lua_Statei(ptr noundef %0, i32 noundef 3)
  %5 = fcmp oeq double %4, 1.000000e+00
  %6 = fsub double %3, %2
  %7 = tail call double @llvm.fmuladd.f64(double %6, double %4, double %2)
  %8 = select i1 %5, double %3, double %7
  tail call void @_Z14lua_pushnumberP9lua_Stated(ptr noundef %0, double noundef %8)
  ret i32 1
}